target datalayout = "e-m:e-p270:32:32-p271:32:32-p272:64:64-i64:64-i128:128-f80:128-n8:16:32:64-S128"
target triple = "x86_64-pc-linux-gnu"

%struct.testcase = type { ptr, ptr }

@hash = dso_local global ptr null, align 8
@.str.56 = private unnamed_addr constant [7 x i8] c"1..%d\0A\00", align 1
@stdout = external global ptr, align 8
@.str.57 = private unnamed_addr constant [19 x i8] c"ok # SKIP %d - %s\0A\00", align 1
@.str.58 = private unnamed_addr constant [12 x i8] c"ok %d - %s\0A\00", align 1
@.str.59 = private unnamed_addr constant [16 x i8] c"not ok %d - %s\0A\00", align 1

; Function Attrs: nounwind uwtable
define dso_local i32 @main(i32 noundef %0, ptr noundef %1) #0 {
  %3 = alloca i32, align 4
  %4 = alloca i32, align 4
  %5 = alloca ptr, align 8
  %6 = alloca i32, align 4
  %7 = alloca i32, align 4
  %8 = alloca i32, align 4
  %9 = alloca i32, align 4
  store i32 0, ptr %3, align 4
  store i32 %0, ptr %4, align 4, !tbaa !10
  store ptr %1, ptr %5, align 8, !tbaa !15
  call void @llvm.lifetime.start.p0(i64 4, ptr %6) #12
  store i32 0, ptr %6, align 4, !tbaa !10
  call void @llvm.lifetime.start.p0(i64 4, ptr %7) #12
  store i32 0, ptr %7, align 4, !tbaa !10
  call void @llvm.lifetime.start.p0(i64 4, ptr %8) #12
  store i32 0, ptr %8, align 4, !tbaa !10
  store ptr @jenkins_hash, ptr @hash, align 8, !tbaa !4
  call void @stats_prefix_init(i8 noundef signext 58)
  call void @crc32c_init()
  store i32 0, ptr %8, align 4, !tbaa !10
  br label %10

10:                                               ; preds = %18, %2
  %11 = load i32, ptr %8, align 4, !tbaa !10
  %12 = sext i32 %11 to i64
  %13 = getelementptr inbounds [57 x %struct.testcase], ptr @testcases, i64 0, i64 %12
  %14 = getelementptr inbounds nuw %struct.testcase, ptr %13, i32 0, i32 0
  %15 = load ptr, ptr %14, align 16, !tbaa !57
  %16 = icmp ne ptr %15, null
  br i1 %16, label %17, label %21

17:                                               ; preds = %10
  br label %18

18:                                               ; preds = %17
  %19 = load i32, ptr %8, align 4, !tbaa !10
  %20 = add nsw i32 %19, 1
  store i32 %20, ptr %8, align 4, !tbaa !10
  br label %10, !llvm.loop !59

21:                                               ; preds = %10
  %22 = load i32, ptr %8, align 4, !tbaa !10
  %23 = call i32 (ptr, ...) @printf(ptr noundef @.str.56, i32 noundef %22)
  store i32 0, ptr %7, align 4, !tbaa !10
  br label %24

24:                                               ; preds = %80, %21
  %25 = load i32, ptr %7, align 4, !tbaa !10
  %26 = sext i32 %25 to i64
  %27 = getelementptr inbounds [57 x %struct.testcase], ptr @testcases, i64 0, i64 %26
  %28 = getelementptr inbounds nuw %struct.testcase, ptr %27, i32 0, i32 0
  %29 = load ptr, ptr %28, align 16, !tbaa !57
  %30 = icmp ne ptr %29, null
  br i1 %30, label %31, label %83

31:                                               ; preds = %24
  %32 = load ptr, ptr @stdout, align 8, !tbaa !37
  %33 = call i32 @fflush(ptr noundef %32)
  %34 = call i32 @alarm(i32 noundef 600) #12
  call void @llvm.lifetime.start.p0(i64 4, ptr %9) #12
  %35 = load i32, ptr %7, align 4, !tbaa !10
  %36 = sext i32 %35 to i64
  %37 = getelementptr inbounds [57 x %struct.testcase], ptr @testcases, i64 0, i64 %36
  %38 = getelementptr inbounds nuw %struct.testcase, ptr %37, i32 0, i32 1
  %39 = load ptr, ptr %38, align 8, !tbaa !60
  %40 = call i32 %39()
  store i32 %40, ptr %9, align 4, !tbaa !10
  %41 = load i32, ptr %9, align 4, !tbaa !10
  %42 = icmp eq i32 %41, 0
  br i1 %42, label %43, label %53

43:                                               ; preds = %31
  %44 = load ptr, ptr @stdout, align 8, !tbaa !37
  %45 = load i32, ptr %7, align 4, !tbaa !10
  %46 = add nsw i32 %45, 1
  %47 = load i32, ptr %7, align 4, !tbaa !10
  %48 = sext i32 %47 to i64
  %49 = getelementptr inbounds [57 x %struct.testcase], ptr @testcases, i64 0, i64 %48
  %50 = getelementptr inbounds nuw %struct.testcase, ptr %49, i32 0, i32 0
  %51 = load ptr, ptr %50, align 16, !tbaa !57
  %52 = call i32 (ptr, ptr, ...) @fprintf(ptr noundef %44, ptr noundef @.str.57, i32 noundef %46, ptr noundef %51) #12
  br label %77

53:                                               ; preds = %31
  %54 = load i32, ptr %9, align 4, !tbaa !10
  %55 = icmp eq i32 %54, 1
  br i1 %55, label %56, label %66

56:                                               ; preds = %53
  %57 = load ptr, ptr @stdout, align 8, !tbaa !37
  %58 = load i32, ptr %7, align 4, !tbaa !10
  %59 = add nsw i32 %58, 1
  %60 = load i32, ptr %7, align 4, !tbaa !10
  %61 = sext i32 %60 to i64
  %62 = getelementptr inbounds [57 x %struct.testcase], ptr @testcases, i64 0, i64 %61
  %63 = getelementptr inbounds nuw %struct.testcase, ptr %62, i32 0, i32 0
  %64 = load ptr, ptr %63, align 16, !tbaa !57
  %65 = call i32 (ptr, ptr, ...) @fprintf(ptr noundef %57, ptr noundef @.str.58, i32 noundef %59, ptr noundef %64) #12
  br label %76

66:                                               ; preds = %53
  %67 = load ptr, ptr @stdout, align 8, !tbaa !37
  %68 = load i32, ptr %7, align 4, !tbaa !10
  %69 = add nsw i32 %68, 1
  %70 = load i32, ptr %7, align 4, !tbaa !10
  %71 = sext i32 %70 to i64
  %72 = getelementptr inbounds [57 x %struct.testcase], ptr @testcases, i64 0, i64 %71
  %73 = getelementptr inbounds nuw %struct.testcase, ptr %72, i32 0, i32 0
  %74 = load ptr, ptr %73, align 16, !tbaa !57
  %75 = call i32 (ptr, ptr, ...) @fprintf(ptr noundef %67, ptr noundef @.str.59, i32 noundef %69, ptr noundef %74) #12
  store i32 1, ptr %6, align 4, !tbaa !10
  br label %76

76:                                               ; preds = %66, %56
  br label %77

77:                                               ; preds = %76, %43
  %78 = load ptr, ptr @stdout, align 8, !tbaa !37
  %79 = call i32 @fflush(ptr noundef %78)
  call void @llvm.lifetime.end.p0(i64 4, ptr %9) #12
  br label %80

80:                                               ; preds = %77
  %81 = load i32, ptr %7, align 4, !tbaa !10
  %82 = add nsw i32 %81, 1
  store i32 %82, ptr %7, align 4, !tbaa !10
  br label %24, !llvm.loop !61

83:                                               ; preds = %24
  %84 = load i32, ptr %6, align 4, !tbaa !10
  call void @llvm.lifetime.end.p0(i64 4, ptr %8) #12
  call void @llvm.lifetime.end.p0(i64 4, ptr %7) #12
  call void @llvm.lifetime.end.p0(i64 4, ptr %6) #12
  ret i32 %84
}