; Function Attrs: nounwind uwtable
define dso_local range(i32 0, 2) i32 @main(i32 noundef %0, ptr noundef readnone captures(none) %1) local_unnamed_addr #0 {
  store ptr @jenkins_hash, ptr @hash, align 8, !tbaa !27
  tail call void @stats_prefix_init(i8 noundef signext 58) #21
  tail call void @crc32c_init() #21
  br label %3

3:                                                ; preds = %3, %2
  %indvars.iv = phi i64 [ %indvars.iv.next, %3 ], [ 0, %2 ]
  %4 = getelementptr inbounds nuw [57 x %struct.testcase], ptr @testcases, i64 0, i64 %indvars.iv
  %5 = load ptr, ptr %4, align 16, !tbaa !57
  %.not = icmp eq ptr %5, null
  %indvars.iv.next = add nuw nsw i64 %indvars.iv, 1
  br i1 %.not, label %6, label %3, !llvm.loop !59

6:                                                ; preds = %3
  %7 = trunc nuw nsw i64 %indvars.iv to i32
  %8 = tail call i32 (ptr, ...) @printf(ptr noundef nonnull dereferenceable(1) @.str.56, i32 noundef %7)
  %9 = load ptr, ptr @testcases, align 16, !tbaa !57
  %.not1819 = icmp eq ptr %9, null
  br i1 %.not1819, label %._crit_edge, label %.lr.ph

.lr.ph:                                           ; preds = %6, %23
  %indvars.iv23 = phi i64 [ %18, %23 ], [ 0, %6 ]
  %10 = phi ptr [ %27, %23 ], [ @testcases, %6 ]
  %.021 = phi i32 [ %.1, %23 ], [ 0, %6 ]
  %11 = load ptr, ptr @stdout, align 8, !tbaa !44
  %12 = tail call i32 @fflush(ptr noundef %11)
  %13 = tail call i32 @alarm(i32 noundef 600) #21
  %14 = getelementptr inbounds nuw i8, ptr %10, i64 8
  %15 = load ptr, ptr %14, align 8, !tbaa !60
  %16 = tail call i32 %15() #21
  %17 = load ptr, ptr @stdout, align 8, !tbaa !44
  %18 = add nuw nsw i64 %indvars.iv23, 1
  %19 = load ptr, ptr %10, align 16, !tbaa !57
  %20 = trunc nuw i64 %18 to i32
  switch i32 %16, label %22 [
    i32 0, label %23
    i32 1, label %21
  ]

21:                                               ; preds = %.lr.ph
  br label %23

22:                                               ; preds = %.lr.ph
  br label %23

23:                                               ; preds = %.lr.ph, %21, %22
  %.str.58.sink = phi ptr [ @.str.58, %21 ], [ @.str.59, %22 ], [ @.str.57, %.lr.ph ]
  %.1 = phi i32 [ %.021, %21 ], [ 1, %22 ], [ %.021, %.lr.ph ]
  %24 = tail call i32 (ptr, ptr, ...) @fprintf(ptr noundef %17, ptr noundef nonnull %.str.58.sink, i32 noundef %20, ptr noundef %19) #21
  %25 = load ptr, ptr @stdout, align 8, !tbaa !44
  %26 = tail call i32 @fflush(ptr noundef %25)
  %27 = getelementptr inbounds nuw [57 x %struct.testcase], ptr @testcases, i64 0, i64 %18
  %28 = load ptr, ptr %27, align 16, !tbaa !57
  %.not18 = icmp eq ptr %28, null
  br i1 %.not18, label %._crit_edge, label %.lr.ph, !llvm.loop !61

._crit_edge:                                      ; preds = %23, %6
  %.0.lcssa = phi i32 [ 0, %6 ], [ %.1, %23 ]
  ret i32 %.0.lcssa
}